; Function Attrs: nounwind uwtable
define hidden range(i32 -1, 1) i32 @ps_update_timestamp_user(ptr readnone captures(none) %0, ptr noundef %1, ptr noundef %2, i64 %3) #0 {
  %5 = alloca [2 x %struct._zval_struct], align 16
  %6 = alloca %struct._zval_struct, align 8
  call void @llvm.lifetime.start.p0(i64 32, ptr nonnull %5) #8
  call void @llvm.lifetime.start.p0(i64 16, ptr nonnull %6) #8
  store ptr %1, ptr %5, align 16, !tbaa !9
  %7 = getelementptr inbounds nuw i8, ptr %1, i64 4
  %8 = load i32, ptr %7, align 4, !tbaa !9
  %9 = and i32 %8, 64
  %.not = icmp eq i32 %9, 0
  br i1 %.not, label %10, label %13

10:                                               ; preds = %4
  %11 = load i32, ptr %1, align 4, !tbaa !4
  %12 = add i32 %11, 1
  store i32 %12, ptr %1, align 4, !tbaa !4
  br label %13

13:                                               ; preds = %4, %10
  %.sink = phi i32 [ 262, %10 ], [ 6, %4 ]
  %14 = getelementptr inbounds nuw i8, ptr %5, i64 8
  store i32 %.sink, ptr %14, align 8, !tbaa !9
  %15 = getelementptr inbounds nuw i8, ptr %5, i64 16
  store ptr %2, ptr %15, align 16, !tbaa !9
  %16 = getelementptr inbounds nuw i8, ptr %2, i64 4
  %17 = load i32, ptr %16, align 4, !tbaa !9
  %18 = and i32 %17, 64
  %.not14 = icmp eq i32 %18, 0
  br i1 %.not14, label %19, label %22

19:                                               ; preds = %13
  %20 = load i32, ptr %2, align 4, !tbaa !4
  %21 = add i32 %20, 1
  store i32 %21, ptr %2, align 4, !tbaa !4
  br label %22

22:                                               ; preds = %13, %19
  %.sink22 = phi i32 [ 262, %19 ], [ 6, %13 ]
  %23 = getelementptr inbounds nuw i8, ptr %5, i64 24
  store i32 %.sink22, ptr %23, align 8, !tbaa !9
  %24 = load i8, ptr getelementptr inbounds nuw (i8, ptr @ps_globals, i64 328), align 8, !tbaa !9
  %25 = icmp eq i8 %24, 0
  %26 = load i8, ptr getelementptr inbounds nuw (i8, ptr @ps_globals, i64 436), align 4, !tbaa !47, !range !58, !noundef !59
  %27 = trunc nuw i8 %26 to i1
  br i1 %25, label %41, label %28

28:                                               ; preds = %22
  br i1 %27, label %ps_call_handler.exit.sink.split, label %29

29:                                               ; preds = %28
  store i8 1, ptr getelementptr inbounds nuw (i8, ptr @ps_globals, i64 436), align 4, !tbaa !47
  %30 = call i32 @_call_user_function_impl(ptr noundef null, ptr noundef nonnull getelementptr inbounds nuw (i8, ptr @ps_globals, i64 320), ptr noundef nonnull %6, i32 noundef 2, ptr noundef nonnull %5, ptr noundef null) #8
  %31 = icmp eq i32 %30, -1
  br i1 %31, label %32, label %34

32:                                               ; preds = %29
  call void @zval_ptr_dtor(ptr noundef nonnull %6) #8
  %33 = getelementptr inbounds nuw i8, ptr %6, i64 8
  store i32 0, ptr %33, align 8, !tbaa !9
  br label %39

34:                                               ; preds = %29
  %35 = getelementptr inbounds nuw i8, ptr %6, i64 8
  %36 = load i8, ptr %35, align 8, !tbaa !9
  %37 = icmp eq i8 %36, 0
  br i1 %37, label %38, label %39

38:                                               ; preds = %34
  store i32 1, ptr %35, align 8, !tbaa !9
  br label %39

39:                                               ; preds = %38, %34, %32
  store i8 0, ptr getelementptr inbounds nuw (i8, ptr @ps_globals, i64 436), align 4, !tbaa !47
  br label %.lr.ph.i

.lr.ph.i:                                         ; preds = %.lr.ph.i, %39
  %indvars.iv.i = phi i64 [ 0, %39 ], [ %indvars.iv.next.i, %.lr.ph.i ]
  %40 = getelementptr inbounds nuw %struct._zval_struct, ptr %5, i64 %indvars.iv.i
  call void @zval_ptr_dtor(ptr noundef nonnull %40) #8
  %indvars.iv.next.i = add nuw nsw i64 %indvars.iv.i, 1
  %exitcond.not.i = icmp eq i64 %indvars.iv.next.i, 2
  br i1 %exitcond.not.i, label %ps_call_handler.exit, label %.lr.ph.i

41:                                               ; preds = %22
  br i1 %27, label %ps_call_handler.exit.sink.split, label %42

42:                                               ; preds = %41
  store i8 1, ptr getelementptr inbounds nuw (i8, ptr @ps_globals, i64 436), align 4, !tbaa !47
  %43 = call i32 @_call_user_function_impl(ptr noundef null, ptr noundef nonnull getelementptr inbounds nuw (i8, ptr @ps_globals, i64 240), ptr noundef nonnull %6, i32 noundef 2, ptr noundef nonnull %5, ptr noundef null) #8
  %44 = icmp eq i32 %43, -1
  br i1 %44, label %45, label %47

45:                                               ; preds = %42
  call void @zval_ptr_dtor(ptr noundef nonnull %6) #8
  %46 = getelementptr inbounds nuw i8, ptr %6, i64 8
  store i32 0, ptr %46, align 8, !tbaa !9
  br label %52

47:                                               ; preds = %42
  %48 = getelementptr inbounds nuw i8, ptr %6, i64 8
  %49 = load i8, ptr %48, align 8, !tbaa !9
  %50 = icmp eq i8 %49, 0
  br i1 %50, label %51, label %52

51:                                               ; preds = %47
  store i32 1, ptr %48, align 8, !tbaa !9
  br label %52

52:                                               ; preds = %51, %47, %45
  store i8 0, ptr getelementptr inbounds nuw (i8, ptr @ps_globals, i64 436), align 4, !tbaa !47
  br label %.lr.ph.i15

.lr.ph.i15:                                       ; preds = %.lr.ph.i15, %52
  %indvars.iv.i16 = phi i64 [ 0, %52 ], [ %indvars.iv.next.i17, %.lr.ph.i15 ]
  %53 = getelementptr inbounds nuw %struct._zval_struct, ptr %5, i64 %indvars.iv.i16
  call void @zval_ptr_dtor(ptr noundef nonnull %53) #8
  %indvars.iv.next.i17 = add nuw nsw i64 %indvars.iv.i16, 1
  %exitcond.not.i18 = icmp eq i64 %indvars.iv.next.i17, 2
  br i1 %exitcond.not.i18, label %ps_call_handler.exit, label %.lr.ph.i15

ps_call_handler.exit.sink.split:                  ; preds = %41, %28
  store i8 0, ptr getelementptr inbounds nuw (i8, ptr @ps_globals, i64 436), align 4, !tbaa !47
  %54 = getelementptr inbounds nuw i8, ptr %6, i64 8
  store i32 0, ptr %54, align 8, !tbaa !9
  tail call void (ptr, i32, ptr, ...) @php_error_docref(ptr noundef null, i32 noundef 2, ptr noundef nonnull @.str.4) #8
  br label %ps_call_handler.exit

ps_call_handler.exit:                             ; preds = %.lr.ph.i, %.lr.ph.i15, %ps_call_handler.exit.sink.split
  %55 = call fastcc i32 @verify_bool_return_type_userland_calls(ptr noundef %6)
  call void @zval_ptr_dtor(ptr noundef nonnull %6) #8
  call void @llvm.lifetime.end.p0(i64 16, ptr nonnull %6) #8
  call void @llvm.lifetime.end.p0(i64 32, ptr nonnull %5) #8
  ret i32 %55
}